; Function Attrs: mustprogress nofree norecurse nosync nounwind willreturn memory(read, inaccessiblemem: none) uwtable
define dso_local noundef i64 @_ZNK4i18n12phonenumbers11StringPiece12find_last_ofERKS1_m(ptr noundef nonnull readonly align 8 captures(none) dereferenceable(16) %0, ptr noundef nonnull readonly align 8 captures(none) dereferenceable(16) %1, i64 noundef %2) local_unnamed_addr #6 align 2 {
  %4 = alloca [256 x i8], align 16
  %5 = getelementptr inbounds nuw i8, ptr %0, i64 8
  %6 = load i64, ptr %5, align 8, !tbaa !11
  %7 = icmp eq i64 %6, 0
  br i1 %7, label %_ZNK4i18n12phonenumbers11StringPiece12find_last_ofEcm.exit, label %8

8:                                                ; preds = %3
  %9 = getelementptr inbounds nuw i8, ptr %1, i64 8
  %10 = load i64, ptr %9, align 8, !tbaa !11
  switch i64 %10, label %25 [
    i64 0, label %_ZNK4i18n12phonenumbers11StringPiece12find_last_ofEcm.exit
    i64 1, label %11
  ]

11:                                               ; preds = %8
  %12 = load ptr, ptr %1, align 8, !tbaa !4
  %13 = load i8, ptr %12, align 1, !tbaa !15
  %14 = add i64 %6, -1
  %.sroa.speculated.i.i = tail call i64 @llvm.umin.i64(i64 %14, i64 %2)
  %15 = load ptr, ptr %0, align 8, !tbaa !4
  %16 = getelementptr inbounds nuw i8, ptr %15, i64 %.sroa.speculated.i.i
  %17 = load i8, ptr %16, align 1, !tbaa !15
  %18 = icmp eq i8 %17, %13
  br i1 %18, label %_ZNK4i18n12phonenumbers11StringPiece12find_last_ofEcm.exit, label %.lr.ph.i.i

.lr.ph.i.i:                                       ; preds = %11, %20
  %.0712.i.i = phi i64 [ %21, %20 ], [ %.sroa.speculated.i.i, %11 ]
  %19 = icmp eq i64 %.0712.i.i, 0
  br i1 %19, label %_ZNK4i18n12phonenumbers11StringPiece12find_last_ofEcm.exit, label %20

20:                                               ; preds = %.lr.ph.i.i
  %21 = add i64 %.0712.i.i, -1
  %22 = getelementptr inbounds nuw i8, ptr %15, i64 %21
  %23 = load i8, ptr %22, align 1, !tbaa !15
  %24 = icmp eq i8 %23, %13
  br i1 %24, label %_ZNK4i18n12phonenumbers11StringPiece12find_last_ofEcm.exit, label %.lr.ph.i.i, !llvm.loop !20

25:                                               ; preds = %8
  call void @llvm.lifetime.start.p0(i64 256, ptr nonnull %4) #13
  call void @llvm.memset.p0.i64(ptr noundef nonnull align 16 dereferenceable(256) %4, i8 0, i64 256, i1 false)
  %.val = load ptr, ptr %1, align 8, !tbaa !4
  br label %.lr.ph.i

.lr.ph.i:                                         ; preds = %25, %.lr.ph.i
  %.01.i = phi i64 [ %30, %.lr.ph.i ], [ 0, %25 ]
  %26 = getelementptr inbounds nuw i8, ptr %.val, i64 %.01.i
  %27 = load i8, ptr %26, align 1, !tbaa !15
  %28 = zext i8 %27 to i64
  %29 = getelementptr inbounds nuw i8, ptr %4, i64 %28
  store i8 1, ptr %29, align 1, !tbaa !21
  %30 = add nuw i64 %.01.i, 1
  %exitcond.not.i = icmp eq i64 %30, %10
  br i1 %exitcond.not.i, label %_ZN4i18n12phonenumbersL16BuildLookupTableERKNS0_11StringPieceEPb.exit, label %.lr.ph.i, !llvm.loop !23

_ZN4i18n12phonenumbersL16BuildLookupTableERKNS0_11StringPieceEPb.exit: ; preds = %.lr.ph.i
  %31 = add i64 %6, -1
  %.sroa.speculated = tail call i64 @llvm.umin.i64(i64 %31, i64 %2)
  %32 = load ptr, ptr %0, align 8, !tbaa !4
  br label %33

33:                                               ; preds = %33, %_ZN4i18n12phonenumbersL16BuildLookupTableERKNS0_11StringPieceEPb.exit
  %.010 = phi i64 [ %.sroa.speculated, %_ZN4i18n12phonenumbersL16BuildLookupTableERKNS0_11StringPieceEPb.exit ], [ %41, %33 ]
  %34 = getelementptr inbounds nuw i8, ptr %32, i64 %.010
  %35 = load i8, ptr %34, align 1, !tbaa !15
  %36 = zext i8 %35 to i64
  %37 = getelementptr inbounds nuw [256 x i8], ptr %4, i64 0, i64 %36
  %38 = load i8, ptr %37, align 1, !tbaa !21, !range !24, !noundef !25
  %39 = trunc nuw i8 %38 to i1
  %40 = icmp eq i64 %.010, 0
  %or.cond = or i1 %40, %39
  %41 = add i64 %.010, -1
  br i1 %or.cond, label %42, label %33, !llvm.loop !29

42:                                               ; preds = %33
  %spec.select = select i1 %39, i64 %.010, i64 -1
  call void @llvm.lifetime.end.p0(i64 256, ptr nonnull %4) #13
  br label %_ZNK4i18n12phonenumbers11StringPiece12find_last_ofEcm.exit

_ZNK4i18n12phonenumbers11StringPiece12find_last_ofEcm.exit: ; preds = %20, %.lr.ph.i.i, %11, %8, %3, %42
  %.011 = phi i64 [ %spec.select, %42 ], [ -1, %8 ], [ -1, %3 ], [ %.sroa.speculated.i.i, %11 ], [ -1, %.lr.ph.i.i ], [ %21, %20 ]
  ret i64 %.011
}